target datalayout = "e-m:e-p270:32:32-p271:32:32-p272:64:64-i64:64-i128:128-f80:128-n8:16:32:64-S128"
target triple = "x86_64-pc-linux-gnu"

; Function Attrs: nounwind uwtable
define i32 @OBJ_obj2nid(ptr noundef %0) #0 {
  %2 = alloca ptr, align 8
  store ptr %0, ptr %2, align 8, !tbaa !23
  %3 = load ptr, ptr %2, align 8, !tbaa !23
  %4 = call i32 @ossl_obj_obj2nid(ptr noundef %3, i32 noundef 1)
  ret i32 %4
}

; Function Attrs: nounwind uwtable
define i32 @OBJ_txt2nid(ptr noundef %0) #0 {
  %2 = alloca ptr, align 8
  %3 = alloca ptr, align 8
  %4 = alloca i32, align 4
  store ptr %0, ptr %2, align 8, !tbaa !26
  call void @llvm.lifetime.start.p0(i64 8, ptr %3) #6
  %5 = load ptr, ptr %2, align 8, !tbaa !26
  %6 = call ptr @OBJ_txt2obj(ptr noundef %5, i32 noundef 0)
  store ptr %6, ptr %3, align 8, !tbaa !23
  call void @llvm.lifetime.start.p0(i64 4, ptr %4) #6
  store i32 0, ptr %4, align 4, !tbaa !21
  %7 = load ptr, ptr %3, align 8, !tbaa !23
  %8 = icmp ne ptr %7, null
  br i1 %8, label %9, label %13

9:                                                ; preds = %1
  %10 = load ptr, ptr %3, align 8, !tbaa !23
  %11 = call i32 @OBJ_obj2nid(ptr noundef %10)
  store i32 %11, ptr %4, align 4, !tbaa !21
  %12 = load ptr, ptr %3, align 8, !tbaa !23
  call void @ASN1_OBJECT_free(ptr noundef %12)
  br label %13

13:                                               ; preds = %9, %1
  %14 = load i32, ptr %4, align 4, !tbaa !21
  call void @llvm.lifetime.end.p0(i64 4, ptr %4) #6
  call void @llvm.lifetime.end.p0(i64 8, ptr %3) #6
  ret i32 %14
}