; Function Attrs: nounwind uwtable
define i32 @OBJ_txt2nid(ptr noundef %0) local_unnamed_addr #0 {
  %2 = tail call ptr @OBJ_txt2obj(ptr noundef %0, i32 noundef 0)
  %.not = icmp eq ptr %2, null
  br i1 %.not, label %5, label %3

3:                                                ; preds = %1
  %4 = tail call fastcc i32 @ossl_obj_obj2nid(ptr noundef nonnull %2, i32 noundef 1)
  tail call void @ASN1_OBJECT_free(ptr noundef nonnull %2) #10
  br label %5

5:                                                ; preds = %3, %1
  %.0 = phi i32 [ %4, %3 ], [ 0, %1 ]
  ret i32 %.0
}